; Function Attrs: mustprogress noreturn nounwind uwtable
define dso_local void @_ZN4llvm18report_fatal_errorEPKcb(ptr noundef %0, i1 noundef zeroext %1) local_unnamed_addr #1 {
  %3 = alloca %"class.llvm::Twine", align 8
  %4 = getelementptr inbounds nuw i8, ptr %3, i64 33
  store i8 1, ptr %4, align 1
  %5 = load i8, ptr %0, align 1
  %.not.i = icmp eq i8 %5, 0
  br i1 %.not.i, label %_ZN4llvm5TwineC2EPKc.exit, label %6

6:                                                ; preds = %2
  store ptr %0, ptr %3, align 8
  br label %_ZN4llvm5TwineC2EPKc.exit

_ZN4llvm5TwineC2EPKc.exit:                        ; preds = %2, %6
  %storemerge.i = phi i8 [ 3, %6 ], [ 1, %2 ]
  %7 = getelementptr inbounds nuw i8, ptr %3, i64 32
  store i8 %storemerge.i, ptr %7, align 8
  call void @_ZN4llvm18report_fatal_errorERKNS_5TwineEb(ptr noundef nonnull align 8 dereferenceable(34) %3, i1 noundef zeroext %1) #14
  unreachable
}